target datalayout = "e-m:e-p270:32:32-p271:32:32-p272:64:64-i64:64-i128:128-f80:128-n8:16:32:64-S128"
target triple = "x86_64-pc-linux-gnu"

%"class.google::protobuf::io::FileInputStream::CopyingFileInputStream" = type <{ %"class.google::protobuf::io::CopyingInputStream", i32, i8, i8, [2 x i8], i32, i8, [3 x i8] }>
%"class.google::protobuf::io::CopyingInputStream" = type { ptr }
%"class.google::protobuf::internal::LogMessage" = type { i32, ptr, i32, %"class.std::__cxx11::basic_string" }
%"class.std::__cxx11::basic_string" = type { %"struct.std::__cxx11::basic_string<char>::_Alloc_hider", i64, %union.anon }
%"struct.std::__cxx11::basic_string<char>::_Alloc_hider" = type { ptr }
%union.anon = type { i64, [8 x i8] }
%"class.google::protobuf::internal::LogFinisher" = type { i8 }

@.str = private unnamed_addr constant [51 x i8] c"third_party/protobuf-lite/zero_copy_stream_impl.cc\00", align 1
@.str.1 = private unnamed_addr constant [17 x i8] c"close() failed: \00", align 1

; Function Attrs: mustprogress nounwind uwtable
define linkonce_odr void @_ZN6google8protobuf2io18CopyingInputStreamD2Ev(ptr noundef nonnull align 8 dereferenceable(8) %0) unnamed_addr #5 comdat align 2 {
  %2 = alloca ptr, align 8
  store ptr %0, ptr %2, align 8
  ret void
}

; Function Attrs: mustprogress nounwind uwtable
define void @_ZN6google8protobuf2io15FileInputStream22CopyingFileInputStreamD2Ev(ptr noundef nonnull align 8 dereferenceable(21) %0) unnamed_addr #5 align 2 personality ptr @__gxx_personality_v0 {
  %2 = alloca ptr, align 8
  %3 = alloca %"class.google::protobuf::internal::LogMessage", align 8
  %4 = alloca %"class.google::protobuf::internal::LogFinisher", align 1
  store ptr %0, ptr %2, align 8
  %5 = load ptr, ptr %2, align 8
  store ptr getelementptr inbounds inrange(-16, 32) ({ [6 x ptr] }, ptr @_ZTVN6google8protobuf2io15FileInputStream22CopyingFileInputStreamE, i32 0, i32 0, i32 2), ptr %5, align 8
  %6 = getelementptr inbounds %"class.google::protobuf::io::FileInputStream::CopyingFileInputStream", ptr %5, i32 0, i32 2
  %7 = load i8, ptr %6, align 4
  %8 = trunc i8 %7 to i1
  br i1 %8, label %9, label %23

9:                                                ; preds = %1
  %10 = invoke noundef zeroext i1 @_ZN6google8protobuf2io15FileInputStream22CopyingFileInputStream5CloseEv(ptr noundef nonnull align 8 dereferenceable(21) %5)
          to label %11 unwind label %24

11:                                               ; preds = %9
  br i1 %10, label %22, label %12

12:                                               ; preds = %11
  invoke void @_ZN6google8protobuf8internal10LogMessageC1ENS0_8LogLevelEPKci(ptr noundef nonnull align 8 dereferenceable(56) %3, i32 noundef 2, ptr noundef @.str, i32 noundef 111)
          to label %13 unwind label %24

13:                                               ; preds = %12
  %14 = invoke noundef nonnull align 8 dereferenceable(56) ptr @_ZN6google8protobuf8internal10LogMessagelsEPKc(ptr noundef nonnull align 8 dereferenceable(56) %3, ptr noundef @.str.1)
          to label %15 unwind label %24

15:                                               ; preds = %13
  %16 = getelementptr inbounds %"class.google::protobuf::io::FileInputStream::CopyingFileInputStream", ptr %5, i32 0, i32 5
  %17 = load i32, ptr %16, align 8
  %18 = call ptr @strerror(i32 noundef %17) #3
  %19 = invoke noundef nonnull align 8 dereferenceable(56) ptr @_ZN6google8protobuf8internal10LogMessagelsEPKc(ptr noundef nonnull align 8 dereferenceable(56) %14, ptr noundef %18)
          to label %20 unwind label %24

20:                                               ; preds = %15
  invoke void @_ZN6google8protobuf8internal11LogFinisheraSERNS1_10LogMessageE(ptr noundef nonnull align 1 dereferenceable(1) %4, ptr noundef nonnull align 8 dereferenceable(56) %19)
          to label %21 unwind label %24

21:                                               ; preds = %20
  call void @_ZN6google8protobuf8internal10LogMessageD1Ev(ptr noundef nonnull align 8 dereferenceable(56) %3) #3
  br label %22

22:                                               ; preds = %21, %11
  br label %23

23:                                               ; preds = %22, %1
  call void @_ZN6google8protobuf2io18CopyingInputStreamD2Ev(ptr noundef nonnull align 8 dereferenceable(8) %5) #3
  ret void

24:                                               ; preds = %20, %15, %13, %12, %9
  %25 = landingpad { ptr, i32 }
          catch ptr null
  %26 = extractvalue { ptr, i32 } %25, 0
  call void @__clang_call_terminate(ptr %26) #11
  unreachable
}