; Function Attrs: mustprogress nounwind uwtable
define void @_ZN6google8protobuf2io15FileInputStream22CopyingFileInputStreamD2Ev(ptr nocapture noundef nonnull align 8 dereferenceable(21) %0) unnamed_addr #5 align 2 personality ptr @__gxx_personality_v0 {
  %2 = alloca %"class.google::protobuf::internal::LogMessage", align 8
  %3 = alloca %"class.google::protobuf::internal::LogFinisher", align 1
  store ptr getelementptr inbounds inrange(-16, 32) (i8, ptr @_ZTVN6google8protobuf2io15FileInputStream22CopyingFileInputStreamE, i64 16), ptr %0, align 8
  %4 = getelementptr inbounds i8, ptr %0, i64 12
  %5 = load i8, ptr %4, align 4
  %6 = trunc i8 %5 to i1
  br i1 %6, label %7, label %20

7:                                                ; preds = %1
  %8 = invoke noundef zeroext i1 @_ZN6google8protobuf2io15FileInputStream22CopyingFileInputStream5CloseEv(ptr noundef nonnull align 8 dereferenceable(21) %0)
          to label %9 unwind label %21

9:                                                ; preds = %7
  br i1 %8, label %20, label %10

10:                                               ; preds = %9
  invoke void @_ZN6google8protobuf8internal10LogMessageC1ENS0_8LogLevelEPKci(ptr noundef nonnull align 8 dereferenceable(56) %2, i32 noundef 2, ptr noundef nonnull @.str, i32 noundef 111)
          to label %11 unwind label %21

11:                                               ; preds = %10
  %12 = invoke noundef nonnull align 8 dereferenceable(56) ptr @_ZN6google8protobuf8internal10LogMessagelsEPKc(ptr noundef nonnull align 8 dereferenceable(56) %2, ptr noundef nonnull @.str.1)
          to label %13 unwind label %21

13:                                               ; preds = %11
  %14 = getelementptr inbounds i8, ptr %0, i64 16
  %15 = load i32, ptr %14, align 8
  %16 = call ptr @strerror(i32 noundef %15) #12
  %17 = invoke noundef nonnull align 8 dereferenceable(56) ptr @_ZN6google8protobuf8internal10LogMessagelsEPKc(ptr noundef nonnull align 8 dereferenceable(56) %12, ptr noundef %16)
          to label %18 unwind label %21

18:                                               ; preds = %13
  invoke void @_ZN6google8protobuf8internal11LogFinisheraSERNS1_10LogMessageE(ptr noundef nonnull align 1 dereferenceable(1) %3, ptr noundef nonnull align 8 dereferenceable(56) %17)
          to label %19 unwind label %21

19:                                               ; preds = %18
  call void @_ZN6google8protobuf8internal10LogMessageD1Ev(ptr noundef nonnull align 8 dereferenceable(56) %2) #12
  br label %20

20:                                               ; preds = %9, %19, %1
  ret void

21:                                               ; preds = %18, %13, %11, %10, %7
  %22 = landingpad { ptr, i32 }
          catch ptr null
  %23 = extractvalue { ptr, i32 } %22, 0
  call void @__clang_call_terminate(ptr %23) #14
  unreachable
}